; Function Attrs: nounwind uwtable
define range(i32 -1, 1) i32 @H5E_printf_stack(ptr noundef %0, ptr noundef %1, i32 noundef %2, i64 noundef %3, i64 noundef %4, ptr noundef %5, ...) local_unnamed_addr #0 {
  %7 = alloca ptr, align 8
  %8 = alloca [1 x %struct.__va_list_tag], align 16
  call void @llvm.lifetime.start.p0(i64 24, ptr nonnull %8) #16
  %9 = load i8, ptr @H5E_init_g, align 1, !tbaa !3, !range !7, !noundef !8
  %10 = trunc nuw i8 %9 to i1
  %11 = load i8, ptr @H5_libterm_g, align 1, !range !7
  %12 = trunc nuw i8 %11 to i1
  %13 = xor i1 %12, true
  %14 = select i1 %10, i1 true, i1 %13
  %15 = load i32, ptr getelementptr inbounds nuw (i8, ptr @H5E_stack_g, i64 2104), align 8
  %.not = icmp eq i32 %15, 0
  %or.cond = select i1 %14, i1 %.not, i1 false
  br i1 %or.cond, label %16, label %41, !prof !12

16:                                               ; preds = %6
  call void @llvm.va_start.p0(ptr nonnull %8)
  %17 = load i64, ptr @H5E_ERR_CLS_g, align 8, !tbaa !10
  %18 = load i8, ptr @H5E_init_g, align 1, !tbaa !3, !range !7, !noundef !8
  %19 = trunc nuw i8 %18 to i1
  %20 = load i8, ptr @H5_libterm_g, align 1, !range !7
  %21 = trunc nuw i8 %20 to i1
  %22 = xor i1 %21, true
  %23 = select i1 %19, i1 true, i1 %22
  br i1 %23, label %24, label %H5E__push_stack.exit.thread, !prof !9

24:                                               ; preds = %16
  %25 = load i64, ptr @H5E_stack_g, align 16, !tbaa !13
  %26 = icmp ult i64 %25, 32
  br i1 %26, label %27, label %H5E__push_stack.exit.thread

27:                                               ; preds = %24
  %28 = getelementptr inbounds nuw [32 x %struct.H5E_entry_t], ptr getelementptr inbounds nuw (i8, ptr @H5E_stack_g, i64 8), i64 0, i64 %25
  store i8 0, ptr %28, align 8, !tbaa !18
  %.idx.i = shl nuw nsw i64 %25, 6
  %.offs.i = or disjoint i64 %.idx.i, 8
  %29 = getelementptr inbounds nuw i8, ptr getelementptr inbounds nuw (i8, ptr @H5E_stack_g, i64 8), i64 %.offs.i
  %.not.i.i = icmp eq ptr %1, null
  %spec.store.select.i.i = select i1 %.not.i.i, ptr @.str.405, ptr %1
  %.not28.i.i = icmp eq ptr %0, null
  %spec.store.select2.i.i = select i1 %.not28.i.i, ptr @.str.406, ptr %0
  %.not29.i.i = icmp eq ptr %5, null
  %spec.store.select1.i.i = select i1 %.not29.i.i, ptr @.str.407, ptr %5
  store i64 %17, ptr %29, align 16, !tbaa !22
  %30 = getelementptr inbounds nuw i8, ptr %29, i64 8
  store i64 %3, ptr %30, align 8, !tbaa !23
  %31 = getelementptr inbounds nuw i8, ptr %29, i64 16
  store i64 %4, ptr %31, align 16, !tbaa !24
  %32 = getelementptr inbounds nuw i8, ptr %29, i64 32
  store ptr %spec.store.select.i.i, ptr %32, align 16, !tbaa !25
  %33 = getelementptr inbounds nuw i8, ptr %29, i64 40
  store ptr %spec.store.select2.i.i, ptr %33, align 8, !tbaa !26
  %34 = getelementptr inbounds nuw i8, ptr %29, i64 24
  store i32 %2, ptr %34, align 8, !tbaa !27
  call void @llvm.lifetime.start.p0(i64 8, ptr nonnull %7) #16
  store ptr null, ptr %7, align 8, !tbaa !28
  %35 = call i32 @vasprintf(ptr noundef nonnull %7, ptr noundef nonnull %spec.store.select1.i.i, ptr noundef nonnull %8) #16
  %36 = icmp slt i32 %35, 0
  br i1 %36, label %40, label %H5E__set_stack_entry.exit.thread.i

H5E__set_stack_entry.exit.thread.i:               ; preds = %27
  %37 = load ptr, ptr %7, align 8, !tbaa !28
  %38 = getelementptr inbounds nuw i8, ptr %29, i64 48
  store ptr %37, ptr %38, align 16, !tbaa !29
  call void @llvm.lifetime.end.p0(i64 8, ptr nonnull %7) #16
  %.pre.i = load i64, ptr @H5E_stack_g, align 16, !tbaa !13
  %39 = add i64 %.pre.i, 1
  store i64 %39, ptr @H5E_stack_g, align 16, !tbaa !13
  br label %H5E__push_stack.exit.thread

40:                                               ; preds = %27
  call void @llvm.lifetime.end.p0(i64 8, ptr nonnull %7) #16
  br label %H5E__push_stack.exit.thread

H5E__push_stack.exit.thread:                      ; preds = %16, %24, %H5E__set_stack_entry.exit.thread.i, %40
  %.1.ph = phi i32 [ -1, %40 ], [ 0, %H5E__set_stack_entry.exit.thread.i ], [ 0, %24 ], [ 0, %16 ]
  call void @llvm.va_end.p0(ptr nonnull %8)
  br label %41

41:                                               ; preds = %H5E__push_stack.exit.thread, %6
  %.0 = phi i32 [ %.1.ph, %H5E__push_stack.exit.thread ], [ 0, %6 ]
  call void @llvm.lifetime.end.p0(i64 24, ptr nonnull %8) #16
  ret i32 %.0
}